; Function Attrs: nounwind sspstrong uwtable
define internal void @qdev_get_legacy_property(ptr noundef %obj, ptr noundef %v, ptr noundef %name, ptr noundef %opaque, ptr noundef %errp) #0 {
entry:
  %buffer = alloca [1024 x i8], align 16
  %ptr = alloca ptr, align 8
  store ptr %buffer, ptr %ptr, align 8
  %info = getelementptr inbounds nuw i8, ptr %opaque, i64 8
  %0 = load ptr, ptr %info, align 8
  %print = getelementptr inbounds nuw i8, ptr %0, i64 32
  %1 = load ptr, ptr %print, align 8
  %call = call i32 %1(ptr noundef %obj, ptr noundef %opaque, ptr noundef nonnull %buffer, i64 noundef 1024) #9
  %call2 = call zeroext i1 @visit_type_str(ptr noundef %v, ptr noundef %name, ptr noundef nonnull %ptr, ptr noundef %errp) #9
  ret void
}